; Function Attrs: mustprogress null_pointer_is_valid sspstrong uwtable
define void @_ZN21EnabledProtocolsModelC2EP7QObject(ptr noundef align 8 dereferenceable_or_null(24) %0, ptr noundef %1) unnamed_addr #4 align 2 personality ptr @__gxx_personality_v0 {
  tail call void @_ZN18QAbstractItemModelC2EP7QObject(ptr noundef align 8 dereferenceable_or_null(16) %0, ptr noundef %1)
  store ptr getelementptr inbounds nuw inrange(-16, 392) (i8, ptr @_ZTV21EnabledProtocolsModel, i64 16), ptr %0, align 8
  %3 = invoke noalias noundef dereferenceable_or_null(104) ptr @_Znwm(i64 noundef 104) #26
          to label %4 unwind label %7

4:                                                ; preds = %2
  invoke void @_ZN16ProtocolTreeItemC2EP9_protocolP19EnabledProtocolItem(ptr noundef align 8 dereferenceable_or_null(104) %3, ptr noundef null, ptr noundef null)
          to label %5 unwind label %9

5:                                                ; preds = %4
  %6 = getelementptr inbounds nuw i8, ptr %0, i64 16
  store ptr %3, ptr %6, align 8
  ret void

7:                                                ; preds = %2
  %8 = landingpad { ptr, i32 }
          cleanup
  br label %11

9:                                                ; preds = %4
  %10 = landingpad { ptr, i32 }
          cleanup
  tail call void @_ZdlPvm(ptr noundef %3, i64 noundef 104) #27
  br label %11

11:                                               ; preds = %9, %7
  %.pn = phi { ptr, i32 } [ %10, %9 ], [ %8, %7 ]
  tail call void @_ZN18QAbstractItemModelD2Ev(ptr noundef align 8 dereferenceable_or_null(16) %0) #28
  resume { ptr, i32 } %.pn
}